target datalayout = "e-m:e-p270:32:32-p271:32:32-p272:64:64-i64:64-i128:128-f80:128-n8:16:32:64-S128"
target triple = "x86_64-pc-linux-gnu"

%"class.icu_77::ConstrainedFieldPosition" = type <{ i64, i32, i32, i32, i32, i8, [7 x i8] }>
%"struct.icu_77::UConstrainedFieldPositionImpl" = type { %"class.icu_77::IcuCApiHelper", [4 x i8], %"class.icu_77::ConstrainedFieldPosition" }
%"class.icu_77::IcuCApiHelper" = type { i32 }

; Function Attrs: mustprogress nounwind uwtable
define noundef signext i8 @_ZNK6icu_7724ConstrainedFieldPosition12matchesFieldEii(ptr noundef nonnull align 8 dereferenceable(25) %0, i32 noundef %1, i32 noundef %2) #0 align 2 {
  %4 = alloca i8, align 1
  %5 = alloca ptr, align 8
  %6 = alloca i32, align 4
  %7 = alloca i32, align 4
  store ptr %0, ptr %5, align 8, !tbaa !23
  store i32 %1, ptr %6, align 4, !tbaa !14
  store i32 %2, ptr %7, align 4, !tbaa !14
  %8 = load ptr, ptr %5, align 8
  %9 = getelementptr inbounds nuw %"class.icu_77::ConstrainedFieldPosition", ptr %8, i32 0, i32 5
  %10 = load i8, ptr %9, align 8, !tbaa !31
  %11 = sext i8 %10 to i32
  switch i32 %11, label %32 [
    i32 0, label %12
    i32 1, label %13
    i32 2, label %19
  ]

12:                                               ; preds = %3
  store i8 1, ptr %4, align 1
  br label %33

13:                                               ; preds = %3
  %14 = getelementptr inbounds nuw %"class.icu_77::ConstrainedFieldPosition", ptr %8, i32 0, i32 4
  %15 = load i32, ptr %14, align 4, !tbaa !30
  %16 = load i32, ptr %6, align 4, !tbaa !14
  %17 = icmp eq i32 %15, %16
  %18 = zext i1 %17 to i8
  store i8 %18, ptr %4, align 1
  br label %33

19:                                               ; preds = %3
  %20 = getelementptr inbounds nuw %"class.icu_77::ConstrainedFieldPosition", ptr %8, i32 0, i32 4
  %21 = load i32, ptr %20, align 4, !tbaa !30
  %22 = load i32, ptr %6, align 4, !tbaa !14
  %23 = icmp eq i32 %21, %22
  br i1 %23, label %24, label %29

24:                                               ; preds = %19
  %25 = getelementptr inbounds nuw %"class.icu_77::ConstrainedFieldPosition", ptr %8, i32 0, i32 1
  %26 = load i32, ptr %25, align 8, !tbaa !27
  %27 = load i32, ptr %7, align 4, !tbaa !14
  %28 = icmp eq i32 %26, %27
  br label %29

29:                                               ; preds = %24, %19
  %30 = phi i1 [ false, %19 ], [ %28, %24 ]
  %31 = zext i1 %30 to i8
  store i8 %31, ptr %4, align 1
  br label %33

32:                                               ; preds = %3
  call void @abort() #15
  unreachable

33:                                               ; preds = %29, %13, %12
  %34 = load i8, ptr %4, align 1
  ret i8 %34
}

; Function Attrs: inlinehint mustprogress nounwind uwtable
define internal noundef signext i8 @_ZL9U_FAILURE10UErrorCode(i32 noundef %0) #2 {
  %2 = alloca i32, align 4
  store i32 %0, ptr %2, align 4, !tbaa !15
  %3 = load i32, ptr %2, align 4, !tbaa !15
  %4 = icmp sgt i32 %3, 0
  %5 = zext i1 %4 to i8
  ret i8 %5
}

; Function Attrs: mustprogress nounwind uwtable
define linkonce_odr noundef ptr @_ZN6icu_7713IcuCApiHelperI25UConstrainedFieldPositionNS_29UConstrainedFieldPositionImplELi1430472192EE8validateEPKS1_R10UErrorCode(ptr noundef %0, ptr noundef nonnull align 4 dereferenceable(4) %1) #0 comdat align 2 {
  %3 = alloca ptr, align 8
  %4 = alloca ptr, align 8
  %5 = alloca ptr, align 8
  %6 = alloca ptr, align 8
  %7 = alloca i32, align 4
  store ptr %0, ptr %4, align 8, !tbaa !38
  store ptr %1, ptr %5, align 8, !tbaa !22
  %8 = load ptr, ptr %5, align 8, !tbaa !22
  %9 = load i32, ptr %8, align 4, !tbaa !15
  %10 = call noundef signext i8 @_ZL9U_FAILURE10UErrorCode(i32 noundef %9)
  %11 = icmp ne i8 %10, 0
  br i1 %11, label %12, label %13

12:                                               ; preds = %2
  store ptr null, ptr %3, align 8
  br label %29

13:                                               ; preds = %2
  %14 = load ptr, ptr %4, align 8, !tbaa !38
  %15 = icmp eq ptr %14, null
  br i1 %15, label %16, label %18

16:                                               ; preds = %13
  %17 = load ptr, ptr %5, align 8, !tbaa !22
  store i32 1, ptr %17, align 4, !tbaa !15
  store ptr null, ptr %3, align 8
  br label %29

18:                                               ; preds = %13
  call void @llvm.lifetime.start.p0(i64 8, ptr %6) #13
  %19 = load ptr, ptr %4, align 8, !tbaa !38
  store ptr %19, ptr %6, align 8, !tbaa !34
  %20 = load ptr, ptr %6, align 8, !tbaa !34
  %21 = getelementptr inbounds nuw %"class.icu_77::IcuCApiHelper", ptr %20, i32 0, i32 0
  %22 = load i32, ptr %21, align 4, !tbaa !40
  %23 = icmp ne i32 %22, 1430472192
  br i1 %23, label %24, label %26

24:                                               ; preds = %18
  %25 = load ptr, ptr %5, align 8, !tbaa !22
  store i32 3, ptr %25, align 4, !tbaa !15
  store ptr null, ptr %3, align 8
  store i32 1, ptr %7, align 4
  br label %28

26:                                               ; preds = %18
  %27 = load ptr, ptr %6, align 8, !tbaa !34
  store ptr %27, ptr %3, align 8
  store i32 1, ptr %7, align 4
  br label %28

28:                                               ; preds = %26, %24
  call void @llvm.lifetime.end.p0(i64 8, ptr %6) #13
  br label %29

29:                                               ; preds = %28, %16, %12
  %30 = load ptr, ptr %3, align 8
  ret ptr %30
}

; Function Attrs: mustprogress uwtable
define signext i8 @ucfpos_matchesField_77(ptr noundef %0, i32 noundef %1, i32 noundef %2, ptr noundef %3) #1 {
  %5 = alloca i8, align 1
  %6 = alloca ptr, align 8
  %7 = alloca i32, align 4
  %8 = alloca i32, align 4
  %9 = alloca ptr, align 8
  %10 = alloca ptr, align 8
  %11 = alloca i32, align 4
  store ptr %0, ptr %6, align 8, !tbaa !38
  store i32 %1, ptr %7, align 4, !tbaa !14
  store i32 %2, ptr %8, align 4, !tbaa !14
  store ptr %3, ptr %9, align 8, !tbaa !22
  call void @llvm.lifetime.start.p0(i64 8, ptr %10) #13
  %12 = load ptr, ptr %6, align 8, !tbaa !38
  %13 = load ptr, ptr %9, align 8, !tbaa !22
  %14 = call noundef ptr @_ZN6icu_7713IcuCApiHelperI25UConstrainedFieldPositionNS_29UConstrainedFieldPositionImplELi1430472192EE8validateEPKS1_R10UErrorCode(ptr noundef %12, ptr noundef nonnull align 4 dereferenceable(4) %13)
  store ptr %14, ptr %10, align 8, !tbaa !34
  %15 = load ptr, ptr %9, align 8, !tbaa !22
  %16 = load i32, ptr %15, align 4, !tbaa !15
  %17 = call noundef signext i8 @_ZL9U_FAILURE10UErrorCode(i32 noundef %16)
  %18 = icmp ne i8 %17, 0
  br i1 %18, label %19, label %20

19:                                               ; preds = %4
  store i8 0, ptr %5, align 1
  store i32 1, ptr %11, align 4
  br label %26

20:                                               ; preds = %4
  %21 = load ptr, ptr %10, align 8, !tbaa !34
  %22 = getelementptr inbounds nuw %"struct.icu_77::UConstrainedFieldPositionImpl", ptr %21, i32 0, i32 2
  %23 = load i32, ptr %7, align 4, !tbaa !14
  %24 = load i32, ptr %8, align 4, !tbaa !14
  %25 = call noundef signext i8 @_ZNK6icu_7724ConstrainedFieldPosition12matchesFieldEii(ptr noundef nonnull align 8 dereferenceable(25) %22, i32 noundef %23, i32 noundef %24)
  store i8 %25, ptr %5, align 1
  store i32 1, ptr %11, align 4
  br label %26

26:                                               ; preds = %20, %19
  call void @llvm.lifetime.end.p0(i64 8, ptr %10) #13
  %27 = load i8, ptr %5, align 1
  ret i8 %27
}