; Function Attrs: mustprogress nofree nounwind uwtable
define signext range(i8 0, 2) i8 @ucfpos_matchesField_77(ptr noundef readonly %0, i32 noundef %1, i32 noundef %2, ptr noundef captures(none) %3) local_unnamed_addr #12 {
  %5 = load i32, ptr %3, align 4, !tbaa !13
  %6 = icmp slt i32 %5, 1
  br i1 %6, label %7, label %_ZN6icu_7713IcuCApiHelperI25UConstrainedFieldPositionNS_29UConstrainedFieldPositionImplELi1430472192EE8validateEPKS1_R10UErrorCode.exit.thread

7:                                                ; preds = %4
  %8 = icmp eq ptr %0, null
  br i1 %8, label %.sink.split.i, label %9

9:                                                ; preds = %7
  %10 = load i32, ptr %0, align 4, !tbaa !23
  %.not9.i = icmp eq i32 %10, 1430472192
  br i1 %.not9.i, label %_ZN6icu_7713IcuCApiHelperI25UConstrainedFieldPositionNS_29UConstrainedFieldPositionImplELi1430472192EE8validateEPKS1_R10UErrorCode.exit, label %.sink.split.i

.sink.split.i:                                    ; preds = %9, %7
  %.sink.i = phi i32 [ 1, %7 ], [ 3, %9 ]
  store i32 %.sink.i, ptr %3, align 4, !tbaa !13
  br label %_ZN6icu_7713IcuCApiHelperI25UConstrainedFieldPositionNS_29UConstrainedFieldPositionImplELi1430472192EE8validateEPKS1_R10UErrorCode.exit.thread

_ZN6icu_7713IcuCApiHelperI25UConstrainedFieldPositionNS_29UConstrainedFieldPositionImplELi1430472192EE8validateEPKS1_R10UErrorCode.exit: ; preds = %9
  %11 = getelementptr inbounds nuw i8, ptr %0, i64 32
  %12 = load i8, ptr %11, align 8, !tbaa !15
  switch i8 %12, label %24 [
    i8 0, label %_ZNK6icu_7724ConstrainedFieldPosition12matchesFieldEii.exit
    i8 1, label %13
    i8 2, label %17
  ]

13:                                               ; preds = %_ZN6icu_7713IcuCApiHelperI25UConstrainedFieldPositionNS_29UConstrainedFieldPositionImplELi1430472192EE8validateEPKS1_R10UErrorCode.exit
  %14 = getelementptr inbounds nuw i8, ptr %0, i64 28
  %15 = load i32, ptr %14, align 4, !tbaa !18
  %16 = icmp eq i32 %15, %1
  br label %_ZNK6icu_7724ConstrainedFieldPosition12matchesFieldEii.exit

17:                                               ; preds = %_ZN6icu_7713IcuCApiHelperI25UConstrainedFieldPositionNS_29UConstrainedFieldPositionImplELi1430472192EE8validateEPKS1_R10UErrorCode.exit
  %18 = getelementptr inbounds nuw i8, ptr %0, i64 28
  %19 = load i32, ptr %18, align 4, !tbaa !18
  %20 = icmp eq i32 %19, %1
  %21 = getelementptr inbounds nuw i8, ptr %0, i64 16
  %22 = load i32, ptr %21, align 8
  %23 = icmp eq i32 %22, %2
  %narrow.i = select i1 %20, i1 %23, i1 false
  br label %_ZNK6icu_7724ConstrainedFieldPosition12matchesFieldEii.exit

24:                                               ; preds = %_ZN6icu_7713IcuCApiHelperI25UConstrainedFieldPositionNS_29UConstrainedFieldPositionImplELi1430472192EE8validateEPKS1_R10UErrorCode.exit
  tail call void @abort() #22
  unreachable

_ZNK6icu_7724ConstrainedFieldPosition12matchesFieldEii.exit: ; preds = %_ZN6icu_7713IcuCApiHelperI25UConstrainedFieldPositionNS_29UConstrainedFieldPositionImplELi1430472192EE8validateEPKS1_R10UErrorCode.exit, %13, %17
  %.0.shrunk.i = phi i1 [ %narrow.i, %17 ], [ %16, %13 ], [ true, %_ZN6icu_7713IcuCApiHelperI25UConstrainedFieldPositionNS_29UConstrainedFieldPositionImplELi1430472192EE8validateEPKS1_R10UErrorCode.exit ]
  %.0.i6 = zext i1 %.0.shrunk.i to i8
  br label %_ZN6icu_7713IcuCApiHelperI25UConstrainedFieldPositionNS_29UConstrainedFieldPositionImplELi1430472192EE8validateEPKS1_R10UErrorCode.exit.thread

_ZN6icu_7713IcuCApiHelperI25UConstrainedFieldPositionNS_29UConstrainedFieldPositionImplELi1430472192EE8validateEPKS1_R10UErrorCode.exit.thread: ; preds = %.sink.split.i, %4, %_ZNK6icu_7724ConstrainedFieldPosition12matchesFieldEii.exit
  %.0 = phi i8 [ %.0.i6, %_ZNK6icu_7724ConstrainedFieldPosition12matchesFieldEii.exit ], [ 0, %4 ], [ 0, %.sink.split.i ]
  ret i8 %.0
}